target datalayout = "e-m:e-p270:32:32-p271:32:32-p272:64:64-i64:64-i128:128-f80:128-n8:16:32:64-S128"
target triple = "x86_64-pc-linux-gnu"

%struct.jpeg_compress_struct = type { ptr, ptr, ptr, ptr, i32, i32, ptr, i32, i32, i32, i32, double, i32, i32, i32, ptr, [4 x ptr], [4 x ptr], [4 x ptr], [16 x i8], [16 x i8], [16 x i8], i32, ptr, i32, i32, i32, i32, i32, i32, i32, i32, i32, i8, i8, i8, i16, i16, i32, i32, i32, i32, i32, i32, i32, [4 x ptr], i32, i32, i32, [10 x i32], i32, i32, i32, i32, ptr, ptr, ptr, ptr, ptr, ptr, ptr, ptr, ptr, ptr, i32 }
%struct.jpeg_component_info = type { i32, i32, i32, i32, i32, i32, i32, i32, i32, i32, i32, i32, i32, i32, i32, i32, i32, i32, i32, ptr, ptr }

; Function Attrs: nounwind uwtable
define internal void @expand_right_edge(ptr noundef %0, i32 noundef %1, i32 noundef %2, i32 noundef %3) #0 {
  %5 = alloca ptr, align 8
  %6 = alloca i32, align 4
  %7 = alloca i32, align 4
  %8 = alloca i32, align 4
  %9 = alloca ptr, align 8
  %10 = alloca i8, align 1
  %11 = alloca i32, align 4
  %12 = alloca i32, align 4
  %13 = alloca i32, align 4
  store ptr %0, ptr %5, align 8
  store i32 %1, ptr %6, align 4
  store i32 %2, ptr %7, align 4
  store i32 %3, ptr %8, align 4
  %14 = load i32, ptr %8, align 4
  %15 = load i32, ptr %7, align 4
  %16 = sub i32 %14, %15
  store i32 %16, ptr %13, align 4
  %17 = load i32, ptr %13, align 4
  %18 = icmp sgt i32 %17, 0
  br i1 %18, label %19, label %52

19:                                               ; preds = %4
  store i32 0, ptr %12, align 4
  br label %20

20:                                               ; preds = %48, %19
  %21 = load i32, ptr %12, align 4
  %22 = load i32, ptr %6, align 4
  %23 = icmp slt i32 %21, %22
  br i1 %23, label %24, label %51

24:                                               ; preds = %20
  %25 = load ptr, ptr %5, align 8
  %26 = load i32, ptr %12, align 4
  %27 = sext i32 %26 to i64
  %28 = getelementptr inbounds ptr, ptr %25, i64 %27
  %29 = load ptr, ptr %28, align 8
  %30 = load i32, ptr %7, align 4
  %31 = zext i32 %30 to i64
  %32 = getelementptr inbounds i8, ptr %29, i64 %31
  store ptr %32, ptr %9, align 8
  %33 = load ptr, ptr %9, align 8
  %34 = getelementptr inbounds i8, ptr %33, i64 -1
  %35 = load i8, ptr %34, align 1
  store i8 %35, ptr %10, align 1
  %36 = load i32, ptr %13, align 4
  store i32 %36, ptr %11, align 4
  br label %37

37:                                               ; preds = %44, %24
  %38 = load i32, ptr %11, align 4
  %39 = icmp sgt i32 %38, 0
  br i1 %39, label %40, label %47

40:                                               ; preds = %37
  %41 = load i8, ptr %10, align 1
  %42 = load ptr, ptr %9, align 8
  %43 = getelementptr inbounds i8, ptr %42, i32 1
  store ptr %43, ptr %9, align 8
  store i8 %41, ptr %42, align 1
  br label %44

44:                                               ; preds = %40
  %45 = load i32, ptr %11, align 4
  %46 = add nsw i32 %45, -1
  store i32 %46, ptr %11, align 4
  br label %37, !llvm.loop !21

47:                                               ; preds = %37
  br label %48

48:                                               ; preds = %47
  %49 = load i32, ptr %12, align 4
  %50 = add nsw i32 %49, 1
  store i32 %50, ptr %12, align 4
  br label %20, !llvm.loop !22

51:                                               ; preds = %20
  br label %52

52:                                               ; preds = %51, %4
  ret void
}

; Function Attrs: nounwind uwtable
define internal void @int_downsample(ptr noundef %0, ptr noundef %1, ptr noundef %2, ptr noundef %3) #0 {
  %5 = alloca ptr, align 8
  %6 = alloca ptr, align 8
  %7 = alloca ptr, align 8
  %8 = alloca ptr, align 8
  %9 = alloca i32, align 4
  %10 = alloca i32, align 4
  %11 = alloca i32, align 4
  %12 = alloca i32, align 4
  %13 = alloca i32, align 4
  %14 = alloca i32, align 4
  %15 = alloca i32, align 4
  %16 = alloca i32, align 4
  %17 = alloca i32, align 4
  %18 = alloca i32, align 4
  %19 = alloca i32, align 4
  %20 = alloca ptr, align 8
  %21 = alloca ptr, align 8
  %22 = alloca i32, align 4
  store ptr %0, ptr %5, align 8
  store ptr %1, ptr %6, align 8
  store ptr %2, ptr %7, align 8
  store ptr %3, ptr %8, align 8
  %23 = load ptr, ptr %6, align 8
  %24 = getelementptr inbounds %struct.jpeg_component_info, ptr %23, i32 0, i32 7
  %25 = load i32, ptr %24, align 4
  %26 = mul i32 %25, 8
  store i32 %26, ptr %19, align 4
  %27 = load ptr, ptr %5, align 8
  %28 = getelementptr inbounds %struct.jpeg_compress_struct, ptr %27, i32 0, i32 41
  %29 = load i32, ptr %28, align 8
  %30 = load ptr, ptr %6, align 8
  %31 = getelementptr inbounds %struct.jpeg_component_info, ptr %30, i32 0, i32 2
  %32 = load i32, ptr %31, align 8
  %33 = sdiv i32 %29, %32
  store i32 %33, ptr %11, align 4
  %34 = load ptr, ptr %5, align 8
  %35 = getelementptr inbounds %struct.jpeg_compress_struct, ptr %34, i32 0, i32 42
  %36 = load i32, ptr %35, align 4
  %37 = load ptr, ptr %6, align 8
  %38 = getelementptr inbounds %struct.jpeg_component_info, ptr %37, i32 0, i32 3
  %39 = load i32, ptr %38, align 4
  %40 = sdiv i32 %36, %39
  store i32 %40, ptr %12, align 4
  %41 = load i32, ptr %11, align 4
  %42 = load i32, ptr %12, align 4
  %43 = mul nsw i32 %41, %42
  store i32 %43, ptr %13, align 4
  %44 = load i32, ptr %13, align 4
  %45 = sdiv i32 %44, 2
  store i32 %45, ptr %14, align 4
  %46 = load ptr, ptr %7, align 8
  %47 = load ptr, ptr %5, align 8
  %48 = getelementptr inbounds %struct.jpeg_compress_struct, ptr %47, i32 0, i32 42
  %49 = load i32, ptr %48, align 4
  %50 = load ptr, ptr %5, align 8
  %51 = getelementptr inbounds %struct.jpeg_compress_struct, ptr %50, i32 0, i32 7
  %52 = load i32, ptr %51, align 8
  %53 = load i32, ptr %19, align 4
  %54 = load i32, ptr %11, align 4
  %55 = mul i32 %53, %54
  call void @expand_right_edge(ptr noundef %46, i32 noundef %49, i32 noundef %52, i32 noundef %55)
  store i32 0, ptr %9, align 4
  store i32 0, ptr %10, align 4
  br label %56

56:                                               ; preds = %125, %4
  %57 = load i32, ptr %10, align 4
  %58 = load ptr, ptr %6, align 8
  %59 = getelementptr inbounds %struct.jpeg_component_info, ptr %58, i32 0, i32 3
  %60 = load i32, ptr %59, align 4
  %61 = icmp slt i32 %57, %60
  br i1 %61, label %62, label %128

62:                                               ; preds = %56
  %63 = load ptr, ptr %8, align 8
  %64 = load i32, ptr %10, align 4
  %65 = sext i32 %64 to i64
  %66 = getelementptr inbounds ptr, ptr %63, i64 %65
  %67 = load ptr, ptr %66, align 8
  store ptr %67, ptr %21, align 8
  store i32 0, ptr %17, align 4
  store i32 0, ptr %18, align 4
  br label %68

68:                                               ; preds = %115, %62
  %69 = load i32, ptr %17, align 4
  %70 = load i32, ptr %19, align 4
  %71 = icmp ult i32 %69, %70
  br i1 %71, label %72, label %121

72:                                               ; preds = %68
  store i32 0, ptr %22, align 4
  store i32 0, ptr %16, align 4
  br label %73

73:                                               ; preds = %103, %72
  %74 = load i32, ptr %16, align 4
  %75 = load i32, ptr %12, align 4
  %76 = icmp slt i32 %74, %75
  br i1 %76, label %77, label %106

77:                                               ; preds = %73
  %78 = load ptr, ptr %7, align 8
  %79 = load i32, ptr %9, align 4
  %80 = load i32, ptr %16, align 4
  %81 = add nsw i32 %79, %80
  %82 = sext i32 %81 to i64
  %83 = getelementptr inbounds ptr, ptr %78, i64 %82
  %84 = load ptr, ptr %83, align 8
  %85 = load i32, ptr %18, align 4
  %86 = zext i32 %85 to i64
  %87 = getelementptr inbounds i8, ptr %84, i64 %86
  store ptr %87, ptr %20, align 8
  store i32 0, ptr %15, align 4
  br label %88

88:                                               ; preds = %99, %77
  %89 = load i32, ptr %15, align 4
  %90 = load i32, ptr %11, align 4
  %91 = icmp slt i32 %89, %90
  br i1 %91, label %92, label %102

92:                                               ; preds = %88
  %93 = load ptr, ptr %20, align 8
  %94 = getelementptr inbounds i8, ptr %93, i32 1
  store ptr %94, ptr %20, align 8
  %95 = load i8, ptr %93, align 1
  %96 = zext i8 %95 to i32
  %97 = load i32, ptr %22, align 4
  %98 = add nsw i32 %97, %96
  store i32 %98, ptr %22, align 4
  br label %99

99:                                               ; preds = %92
  %100 = load i32, ptr %15, align 4
  %101 = add nsw i32 %100, 1
  store i32 %101, ptr %15, align 4
  br label %88, !llvm.loop !17

102:                                              ; preds = %88
  br label %103

103:                                              ; preds = %102
  %104 = load i32, ptr %16, align 4
  %105 = add nsw i32 %104, 1
  store i32 %105, ptr %16, align 4
  br label %73, !llvm.loop !18

106:                                              ; preds = %73
  %107 = load i32, ptr %22, align 4
  %108 = load i32, ptr %14, align 4
  %109 = add nsw i32 %107, %108
  %110 = load i32, ptr %13, align 4
  %111 = sdiv i32 %109, %110
  %112 = trunc i32 %111 to i8
  %113 = load ptr, ptr %21, align 8
  %114 = getelementptr inbounds i8, ptr %113, i32 1
  store ptr %114, ptr %21, align 8
  store i8 %112, ptr %113, align 1
  br label %115

115:                                              ; preds = %106
  %116 = load i32, ptr %17, align 4
  %117 = add i32 %116, 1
  store i32 %117, ptr %17, align 4
  %118 = load i32, ptr %11, align 4
  %119 = load i32, ptr %18, align 4
  %120 = add i32 %119, %118
  store i32 %120, ptr %18, align 4
  br label %68, !llvm.loop !19

121:                                              ; preds = %68
  %122 = load i32, ptr %12, align 4
  %123 = load i32, ptr %9, align 4
  %124 = add nsw i32 %123, %122
  store i32 %124, ptr %9, align 4
  br label %125

125:                                              ; preds = %121
  %126 = load i32, ptr %10, align 4
  %127 = add nsw i32 %126, 1
  store i32 %127, ptr %10, align 4
  br label %56, !llvm.loop !20

128:                                              ; preds = %56
  ret void
}