; Function Attrs: nofree norecurse nosync nounwind memory(readwrite, inaccessiblemem: none) uwtable
define internal void @int_downsample(ptr nocapture noundef readonly %0, ptr nocapture noundef readonly %1, ptr nocapture noundef readonly %2, ptr nocapture noundef readonly %3) #2 {
  %5 = getelementptr inbounds i8, ptr %1, i64 28
  %6 = load i32, ptr %5, align 4
  %7 = shl i32 %6, 3
  %8 = getelementptr inbounds i8, ptr %0, i64 312
  %9 = load i32, ptr %8, align 8
  %10 = getelementptr inbounds i8, ptr %1, i64 8
  %11 = load i32, ptr %10, align 8
  %12 = sdiv i32 %9, %11
  %13 = getelementptr inbounds i8, ptr %0, i64 316
  %14 = load i32, ptr %13, align 4
  %15 = getelementptr inbounds i8, ptr %1, i64 12
  %16 = load i32, ptr %15, align 4
  %17 = sdiv i32 %14, %16
  %18 = mul nsw i32 %17, %12
  %19 = sdiv i32 %18, 2
  %20 = getelementptr inbounds i8, ptr %0, i64 48
  %21 = load i32, ptr %20, align 8
  %22 = mul i32 %12, %7
  %23 = sub i32 %22, %21
  %24 = icmp sgt i32 %23, 0
  %25 = icmp sgt i32 %14, 0
  %or.cond.i = and i1 %25, %24
  br i1 %or.cond.i, label %.lr.ph20.i, label %expand_right_edge.exit

.lr.ph20.i:                                       ; preds = %4
  %26 = zext i32 %21 to i64
  %27 = xor i32 %21, -1
  %28 = add i32 %22, %27
  %29 = zext i32 %28 to i64
  %30 = add nuw nsw i64 %29, 1
  %wide.trip.count.i = zext nneg i32 %14 to i64
  br label %.lr.ph.us.i

.lr.ph.us.i:                                      ; preds = %.lr.ph.us.i, %.lr.ph20.i
  %indvars.iv.i = phi i64 [ 0, %.lr.ph20.i ], [ %indvars.iv.next.i, %.lr.ph.us.i ]
  %31 = getelementptr inbounds ptr, ptr %2, i64 %indvars.iv.i
  %32 = load ptr, ptr %31, align 8
  %33 = getelementptr inbounds i8, ptr %32, i64 %26
  %34 = getelementptr inbounds i8, ptr %33, i64 -1
  %35 = load i8, ptr %34, align 1
  tail call void @llvm.memset.p0.i64(ptr noundef nonnull align 1 dereferenceable(1) %33, i8 %35, i64 %30, i1 false)
  %indvars.iv.next.i = add nuw nsw i64 %indvars.iv.i, 1
  %exitcond.not.i = icmp eq i64 %indvars.iv.next.i, %wide.trip.count.i
  br i1 %exitcond.not.i, label %expand_right_edge.exit.loopexit, label %.lr.ph.us.i, !llvm.loop !9

expand_right_edge.exit.loopexit:                  ; preds = %.lr.ph.us.i
  %.pre = load i32, ptr %15, align 4
  br label %expand_right_edge.exit

expand_right_edge.exit:                           ; preds = %expand_right_edge.exit.loopexit, %4
  %36 = phi i32 [ %.pre, %expand_right_edge.exit.loopexit ], [ %16, %4 ]
  %37 = icmp sgt i32 %36, 0
  br i1 %37, label %.lr.ph, label %._crit_edge66

.lr.ph:                                           ; preds = %expand_right_edge.exit
  %.not = icmp eq i32 %7, 0
  %38 = icmp sgt i32 %12, 0
  br i1 %.not, label %._crit_edge66, label %.lr.ph.split.us

.lr.ph.split.us:                                  ; preds = %.lr.ph
  %39 = icmp sgt i32 %17, 0
  br i1 %39, label %.lr.ph.split.us.split.us, label %.lr.ph.split.us.split

.lr.ph.split.us.split.us:                         ; preds = %.lr.ph.split.us
  br i1 %38, label %.preheader.lr.ph.us.us.us.preheader, label %.lr.ph.split.us.split.us.split

.preheader.lr.ph.us.us.us.preheader:              ; preds = %.lr.ph.split.us.split.us
  %40 = zext nneg i32 %17 to i64
  br label %.preheader.lr.ph.us.us.us

.preheader.lr.ph.us.us.us:                        ; preds = %.preheader.lr.ph.us.us.us.preheader, %._crit_edge.split.us.split.us.us.us.us
  %indvars.iv93 = phi i64 [ 0, %.preheader.lr.ph.us.us.us.preheader ], [ %indvars.iv.next94, %._crit_edge.split.us.split.us.us.us.us ]
  %indvars.iv91 = phi i64 [ 0, %.preheader.lr.ph.us.us.us.preheader ], [ %indvars.iv.next92, %._crit_edge.split.us.split.us.us.us.us ]
  %41 = getelementptr inbounds ptr, ptr %3, i64 %indvars.iv93
  %42 = load ptr, ptr %41, align 8
  %invariant.gep = getelementptr inbounds ptr, ptr %2, i64 %indvars.iv91
  br label %.preheader.us.us.us.us.us

.preheader.us.us.us.us.us:                        ; preds = %._crit_edge54.split.us.us.us.us.us.us, %.preheader.lr.ph.us.us.us
  %.04058.us.us.us.us.us = phi ptr [ %42, %.preheader.lr.ph.us.us.us ], [ %55, %._crit_edge54.split.us.us.us.us.us.us ]
  %.04357.us.us.us.us.us = phi i32 [ 0, %.preheader.lr.ph.us.us.us ], [ %57, %._crit_edge54.split.us.us.us.us.us.us ]
  %.04456.us.us.us.us.us = phi i32 [ 0, %.preheader.lr.ph.us.us.us ], [ %56, %._crit_edge54.split.us.us.us.us.us.us ]
  %43 = zext i32 %.04357.us.us.us.us.us to i64
  br label %.lr.ph.us.us.us.us.us.us

.lr.ph.us.us.us.us.us.us:                         ; preds = %._crit_edge.us.us.us.us.us.us, %.preheader.us.us.us.us.us
  %indvars.iv86 = phi i64 [ %indvars.iv.next87, %._crit_edge.us.us.us.us.us.us ], [ 0, %.preheader.us.us.us.us.us ]
  %.052.us.us.us.us.us.us = phi i32 [ %50, %._crit_edge.us.us.us.us.us.us ], [ 0, %.preheader.us.us.us.us.us ]
  %gep = getelementptr inbounds ptr, ptr %invariant.gep, i64 %indvars.iv86
  %44 = load ptr, ptr %gep, align 8
  %45 = getelementptr inbounds i8, ptr %44, i64 %43
  br label %46

46:                                               ; preds = %46, %.lr.ph.us.us.us.us.us.us
  %.150.us.us.us.us.us.us = phi i32 [ %.052.us.us.us.us.us.us, %.lr.ph.us.us.us.us.us.us ], [ %50, %46 ]
  %.04149.us.us.us.us.us.us = phi ptr [ %45, %.lr.ph.us.us.us.us.us.us ], [ %47, %46 ]
  %.04648.us.us.us.us.us.us = phi i32 [ 0, %.lr.ph.us.us.us.us.us.us ], [ %51, %46 ]
  %47 = getelementptr inbounds i8, ptr %.04149.us.us.us.us.us.us, i64 1
  %48 = load i8, ptr %.04149.us.us.us.us.us.us, align 1
  %49 = zext i8 %48 to i32
  %50 = add nsw i32 %.150.us.us.us.us.us.us, %49
  %51 = add nuw nsw i32 %.04648.us.us.us.us.us.us, 1
  %exitcond.not = icmp eq i32 %51, %12
  br i1 %exitcond.not, label %._crit_edge.us.us.us.us.us.us, label %46, !llvm.loop !18

._crit_edge.us.us.us.us.us.us:                    ; preds = %46
  %indvars.iv.next87 = add nuw nsw i64 %indvars.iv86, 1
  %exitcond89.not = icmp eq i64 %indvars.iv.next87, %40
  br i1 %exitcond89.not, label %._crit_edge54.split.us.us.us.us.us.us, label %.lr.ph.us.us.us.us.us.us, !llvm.loop !19

._crit_edge54.split.us.us.us.us.us.us:            ; preds = %._crit_edge.us.us.us.us.us.us
  %52 = add nsw i32 %50, %19
  %53 = sdiv i32 %52, %18
  %54 = trunc i32 %53 to i8
  %55 = getelementptr inbounds i8, ptr %.04058.us.us.us.us.us, i64 1
  store i8 %54, ptr %.04058.us.us.us.us.us, align 1
  %56 = add nuw i32 %.04456.us.us.us.us.us, 1
  %57 = add i32 %.04357.us.us.us.us.us, %12
  %exitcond90.not = icmp eq i32 %56, %7
  br i1 %exitcond90.not, label %._crit_edge.split.us.split.us.us.us.us, label %.preheader.us.us.us.us.us, !llvm.loop !20

._crit_edge.split.us.split.us.us.us.us:           ; preds = %._crit_edge54.split.us.us.us.us.us.us
  %indvars.iv.next92 = add nuw nsw i64 %indvars.iv91, %40
  %indvars.iv.next94 = add nuw nsw i64 %indvars.iv93, 1
  %58 = load i32, ptr %15, align 4
  %59 = sext i32 %58 to i64
  %60 = icmp slt i64 %indvars.iv.next94, %59
  br i1 %60, label %.preheader.lr.ph.us.us.us, label %._crit_edge66, !llvm.loop !21

.lr.ph.split.us.split.us.split:                   ; preds = %.lr.ph.split.us.split.us
  %61 = sdiv i32 %19, %18
  %62 = trunc i32 %61 to i8
  %63 = zext i32 %7 to i64
  br label %.preheader.lr.ph.us.us

.preheader.lr.ph.us.us:                           ; preds = %.preheader.lr.ph.us.us, %.lr.ph.split.us.split.us.split
  %indvars.iv83 = phi i64 [ %indvars.iv.next84, %.preheader.lr.ph.us.us ], [ 0, %.lr.ph.split.us.split.us.split ]
  %64 = getelementptr inbounds ptr, ptr %3, i64 %indvars.iv83
  %65 = load ptr, ptr %64, align 8
  tail call void @llvm.memset.p0.i64(ptr align 1 %65, i8 %62, i64 %63, i1 false)
  %indvars.iv.next84 = add nuw nsw i64 %indvars.iv83, 1
  %66 = load i32, ptr %15, align 4
  %67 = sext i32 %66 to i64
  %68 = icmp slt i64 %indvars.iv.next84, %67
  br i1 %68, label %.preheader.lr.ph.us.us, label %._crit_edge66, !llvm.loop !21

.lr.ph.split.us.split:                            ; preds = %.lr.ph.split.us
  %69 = sdiv i32 %19, %18
  %70 = trunc i32 %69 to i8
  %71 = zext i32 %7 to i64
  br label %.preheader.lr.ph.us

.preheader.lr.ph.us:                              ; preds = %.preheader.lr.ph.us, %.lr.ph.split.us.split
  %indvars.iv = phi i64 [ %indvars.iv.next, %.preheader.lr.ph.us ], [ 0, %.lr.ph.split.us.split ]
  %72 = getelementptr inbounds ptr, ptr %3, i64 %indvars.iv
  %73 = load ptr, ptr %72, align 8
  tail call void @llvm.memset.p0.i64(ptr align 1 %73, i8 %70, i64 %71, i1 false)
  %indvars.iv.next = add nuw nsw i64 %indvars.iv, 1
  %74 = load i32, ptr %15, align 4
  %75 = sext i32 %74 to i64
  %76 = icmp slt i64 %indvars.iv.next, %75
  br i1 %76, label %.preheader.lr.ph.us, label %._crit_edge66, !llvm.loop !21

._crit_edge66:                                    ; preds = %.preheader.lr.ph.us, %.preheader.lr.ph.us.us, %._crit_edge.split.us.split.us.us.us.us, %.lr.ph, %expand_right_edge.exit
  ret void
}